target datalayout = "e-m:e-p270:32:32-p271:32:32-p272:64:64-i64:64-i128:128-f80:128-n8:16:32:64-S128"
target triple = "x86_64-pc-linux-gnu"

%union.jvalue = type { i64 }
%struct.JNINativeInterface_ = type { ptr, ptr, ptr, ptr, ptr, ptr, ptr, ptr, ptr, ptr, ptr, ptr, ptr, ptr, ptr, ptr, ptr, ptr, ptr, ptr, ptr, ptr, ptr, ptr, ptr, ptr, ptr, ptr, ptr, ptr, ptr, ptr, ptr, ptr, ptr, ptr, ptr, ptr, ptr, ptr, ptr, ptr, ptr, ptr, ptr, ptr, ptr, ptr, ptr, ptr, ptr, ptr, ptr, ptr, ptr, ptr, ptr, ptr, ptr, ptr, ptr, ptr, ptr, ptr, ptr, ptr, ptr, ptr, ptr, ptr, ptr, ptr, ptr, ptr, ptr, ptr, ptr, ptr, ptr, ptr, ptr, ptr, ptr, ptr, ptr, ptr, ptr, ptr, ptr, ptr, ptr, ptr, ptr, ptr, ptr, ptr, ptr, ptr, ptr, ptr, ptr, ptr, ptr, ptr, ptr, ptr, ptr, ptr, ptr, ptr, ptr, ptr, ptr, ptr, ptr, ptr, ptr, ptr, ptr, ptr, ptr, ptr, ptr, ptr, ptr, ptr, ptr, ptr, ptr, ptr, ptr, ptr, ptr, ptr, ptr, ptr, ptr, ptr, ptr, ptr, ptr, ptr, ptr, ptr, ptr, ptr, ptr, ptr, ptr, ptr, ptr, ptr, ptr, ptr, ptr, ptr, ptr, ptr, ptr, ptr, ptr, ptr, ptr, ptr, ptr, ptr, ptr, ptr, ptr, ptr, ptr, ptr, ptr, ptr, ptr, ptr, ptr, ptr, ptr, ptr, ptr, ptr, ptr, ptr, ptr, ptr, ptr, ptr, ptr, ptr, ptr, ptr, ptr, ptr, ptr, ptr, ptr, ptr, ptr, ptr, ptr, ptr, ptr, ptr, ptr, ptr, ptr, ptr, ptr, ptr, ptr, ptr, ptr, ptr, ptr, ptr, ptr, ptr, ptr, ptr, ptr, ptr, ptr, ptr, ptr, ptr, ptr, ptr, ptr, ptr, ptr, ptr, ptr, ptr, ptr }
%struct._OGLSDOps = type { %struct._SurfaceDataOps, ptr, ptr, i32, i32, i8, i8, i32, i32, i32, i32, i32, i32, i32, i32, i32, i32, i32 }
%struct._SurfaceDataOps = type { ptr, ptr, ptr, ptr, ptr, ptr, ptr }
%struct._GLXSDOps = type { i64, i64, i64, ptr }
%struct._AwtGraphicsConfigData = type { i32, i64, %struct.XVisualInfo, i32, ptr, ptr, ptr, i64, i32, i32, ptr, i32, ptr, ptr, i32, %struct.XRenderPictFormat }
%struct.XVisualInfo = type { ptr, i64, i32, i32, i32, i64, i64, i64, i32, i32 }
%struct.XRenderPictFormat = type { i64, i32, i32, %struct.XRenderDirectFormat, i64 }
%struct.XRenderDirectFormat = type { i16, i16, i16, i16, i16, i16, i16, i16 }

@.str = private unnamed_addr constant [38 x i8] c"Initialization of SurfaceData failed.\00", align 1
@.str.1 = private unnamed_addr constant [24 x i8] c"creating native GLX ops\00", align 1
@.str.2 = private unnamed_addr constant [17 x i8] c"getContentWindow\00", align 1
@.str.3 = private unnamed_addr constant [4 x i8] c"()J\00", align 1
@.str.4 = private unnamed_addr constant [41 x i8] c"Native GraphicsConfig data block missing\00", align 1
@.str.5 = private unnamed_addr constant [30 x i8] c"GLXGraphicsConfigInfo missing\00", align 1

; Function Attrs: nounwind uwtable
define void @Java_sun_java2d_opengl_GLXSurfaceData_initOps(ptr noundef %0, ptr noundef %1, ptr noundef %2, ptr noundef %3, i64 noundef %4) #0 {
  %6 = alloca ptr, align 8
  %7 = alloca ptr, align 8
  %8 = alloca ptr, align 8
  %9 = alloca ptr, align 8
  %10 = alloca i64, align 8
  %11 = alloca ptr, align 8
  %12 = alloca ptr, align 8
  %13 = alloca %union.jvalue, align 8
  store ptr %0, ptr %6, align 8
  store ptr %1, ptr %7, align 8
  store ptr %2, ptr %8, align 8
  store ptr %3, ptr %9, align 8
  store i64 %4, ptr %10, align 8
  %14 = load ptr, ptr %6, align 8
  %15 = load ptr, ptr %14, align 8
  %16 = getelementptr inbounds %struct.JNINativeInterface_, ptr %15, i32 0, i32 21
  %17 = load ptr, ptr %16, align 8
  %18 = load ptr, ptr %6, align 8
  %19 = load ptr, ptr %8, align 8
  %20 = call ptr %17(ptr noundef %18, ptr noundef %19)
  store ptr %20, ptr %8, align 8
  %21 = load ptr, ptr %8, align 8
  %22 = icmp eq ptr %21, null
  br i1 %22, label %23, label %25

23:                                               ; preds = %5
  %24 = load ptr, ptr %6, align 8
  call void @JNU_ThrowOutOfMemoryError(ptr noundef %24, ptr noundef @.str)
  br label %105

25:                                               ; preds = %5
  %26 = load ptr, ptr %6, align 8
  %27 = load ptr, ptr %7, align 8
  %28 = call ptr @SurfaceData_InitOps(ptr noundef %26, ptr noundef %27, i32 noundef 128)
  store ptr %28, ptr %11, align 8
  %29 = load ptr, ptr %11, align 8
  %30 = icmp eq ptr %29, null
  br i1 %30, label %31, label %39

31:                                               ; preds = %25
  %32 = load ptr, ptr %6, align 8
  %33 = load ptr, ptr %32, align 8
  %34 = getelementptr inbounds %struct.JNINativeInterface_, ptr %33, i32 0, i32 22
  %35 = load ptr, ptr %34, align 8
  %36 = load ptr, ptr %6, align 8
  %37 = load ptr, ptr %8, align 8
  call void %35(ptr noundef %36, ptr noundef %37)
  %38 = load ptr, ptr %6, align 8
  call void @JNU_ThrowOutOfMemoryError(ptr noundef %38, ptr noundef @.str)
  br label %105

39:                                               ; preds = %25
  %40 = load ptr, ptr %8, align 8
  %41 = load ptr, ptr %11, align 8
  %42 = getelementptr inbounds %struct._OGLSDOps, ptr %41, i32 0, i32 2
  store ptr %40, ptr %42, align 8
  %43 = call noalias ptr @malloc(i64 noundef 32) #4
  store ptr %43, ptr %12, align 8
  %44 = load ptr, ptr %12, align 8
  %45 = icmp eq ptr %44, null
  br i1 %45, label %46, label %48

46:                                               ; preds = %39
  %47 = load ptr, ptr %6, align 8
  call void @JNU_ThrowOutOfMemoryError(ptr noundef %47, ptr noundef @.str.1)
  br label %105

48:                                               ; preds = %39
  %49 = load ptr, ptr %12, align 8
  %50 = load ptr, ptr %11, align 8
  %51 = getelementptr inbounds %struct._OGLSDOps, ptr %50, i32 0, i32 1
  store ptr %49, ptr %51, align 8
  %52 = load ptr, ptr %11, align 8
  %53 = getelementptr inbounds %struct._OGLSDOps, ptr %52, i32 0, i32 0
  %54 = getelementptr inbounds %struct._SurfaceDataOps, ptr %53, i32 0, i32 0
  store ptr @OGLSD_Lock, ptr %54, align 8
  %55 = load ptr, ptr %11, align 8
  %56 = getelementptr inbounds %struct._OGLSDOps, ptr %55, i32 0, i32 0
  %57 = getelementptr inbounds %struct._SurfaceDataOps, ptr %56, i32 0, i32 1
  store ptr @OGLSD_GetRasInfo, ptr %57, align 8
  %58 = load ptr, ptr %11, align 8
  %59 = getelementptr inbounds %struct._OGLSDOps, ptr %58, i32 0, i32 0
  %60 = getelementptr inbounds %struct._SurfaceDataOps, ptr %59, i32 0, i32 3
  store ptr @OGLSD_Unlock, ptr %60, align 8
  %61 = load ptr, ptr %11, align 8
  %62 = getelementptr inbounds %struct._OGLSDOps, ptr %61, i32 0, i32 0
  %63 = getelementptr inbounds %struct._SurfaceDataOps, ptr %62, i32 0, i32 5
  store ptr @OGLSD_Dispose, ptr %63, align 8
  %64 = load ptr, ptr %11, align 8
  %65 = getelementptr inbounds %struct._OGLSDOps, ptr %64, i32 0, i32 3
  store i32 0, ptr %65, align 8
  %66 = load ptr, ptr %11, align 8
  %67 = getelementptr inbounds %struct._OGLSDOps, ptr %66, i32 0, i32 4
  store i32 1028, ptr %67, align 4
  %68 = load ptr, ptr %11, align 8
  %69 = getelementptr inbounds %struct._OGLSDOps, ptr %68, i32 0, i32 6
  store i8 1, ptr %69, align 1
  %70 = load ptr, ptr %9, align 8
  %71 = icmp ne ptr %70, null
  br i1 %71, label %72, label %80

72:                                               ; preds = %48
  %73 = load ptr, ptr %6, align 8
  %74 = load ptr, ptr %9, align 8
  %75 = call i64 (ptr, ptr, ptr, ptr, ptr, ...) @JNU_CallMethodByName(ptr noundef %73, ptr noundef null, ptr noundef %74, ptr noundef @.str.2, ptr noundef @.str.3)
  %76 = getelementptr inbounds %union.jvalue, ptr %13, i32 0, i32 0
  store i64 %75, ptr %76, align 8
  %77 = load i64, ptr %13, align 8
  %78 = load ptr, ptr %12, align 8
  %79 = getelementptr inbounds %struct._GLXSDOps, ptr %78, i32 0, i32 0
  store i64 %77, ptr %79, align 8
  br label %83

80:                                               ; preds = %48
  %81 = load ptr, ptr %12, align 8
  %82 = getelementptr inbounds %struct._GLXSDOps, ptr %81, i32 0, i32 0
  store i64 0, ptr %82, align 8
  br label %83

83:                                               ; preds = %80, %72
  %84 = load i64, ptr %10, align 8
  %85 = inttoptr i64 %84 to ptr
  %86 = load ptr, ptr %12, align 8
  %87 = getelementptr inbounds %struct._GLXSDOps, ptr %86, i32 0, i32 3
  store ptr %85, ptr %87, align 8
  %88 = load ptr, ptr %12, align 8
  %89 = getelementptr inbounds %struct._GLXSDOps, ptr %88, i32 0, i32 3
  %90 = load ptr, ptr %89, align 8
  %91 = icmp eq ptr %90, null
  br i1 %91, label %92, label %95

92:                                               ; preds = %83
  %93 = load ptr, ptr %12, align 8
  call void @free(ptr noundef %93) #5
  %94 = load ptr, ptr %6, align 8
  call void @JNU_ThrowNullPointerException(ptr noundef %94, ptr noundef @.str.4)
  br label %105

95:                                               ; preds = %83
  %96 = load ptr, ptr %12, align 8
  %97 = getelementptr inbounds %struct._GLXSDOps, ptr %96, i32 0, i32 3
  %98 = load ptr, ptr %97, align 8
  %99 = getelementptr inbounds %struct._AwtGraphicsConfigData, ptr %98, i32 0, i32 13
  %100 = load ptr, ptr %99, align 8
  %101 = icmp eq ptr %100, null
  br i1 %101, label %102, label %105

102:                                              ; preds = %95
  %103 = load ptr, ptr %12, align 8
  call void @free(ptr noundef %103) #5
  %104 = load ptr, ptr %6, align 8
  call void @JNU_ThrowNullPointerException(ptr noundef %104, ptr noundef @.str.5)
  br label %105

105:                                              ; preds = %102, %95, %92, %46, %31, %23
  ret void
}