; Function Attrs: nounwind uwtable
define void @Java_sun_java2d_opengl_GLXSurfaceData_initOps(ptr noundef %0, ptr noundef %1, ptr noundef %2, ptr noundef %3, i64 noundef %4) local_unnamed_addr #0 {
  %6 = load ptr, ptr %0, align 8
  %7 = getelementptr inbounds i8, ptr %6, i64 168
  %8 = load ptr, ptr %7, align 8
  %9 = tail call ptr %8(ptr noundef nonnull %0, ptr noundef %2) #5
  %10 = icmp eq ptr %9, null
  br i1 %10, label %11, label %12

11:                                               ; preds = %5
  tail call void @JNU_ThrowOutOfMemoryError(ptr noundef nonnull %0, ptr noundef nonnull @.str) #5
  br label %44

12:                                               ; preds = %5
  %13 = tail call ptr @SurfaceData_InitOps(ptr noundef nonnull %0, ptr noundef %1, i32 noundef 128) #5
  %14 = icmp eq ptr %13, null
  br i1 %14, label %15, label %19

15:                                               ; preds = %12
  %16 = load ptr, ptr %0, align 8
  %17 = getelementptr inbounds i8, ptr %16, i64 176
  %18 = load ptr, ptr %17, align 8
  tail call void %18(ptr noundef nonnull %0, ptr noundef nonnull %9) #5
  tail call void @JNU_ThrowOutOfMemoryError(ptr noundef nonnull %0, ptr noundef nonnull @.str) #5
  br label %44

19:                                               ; preds = %12
  %20 = getelementptr inbounds i8, ptr %13, i64 64
  store ptr %9, ptr %20, align 8
  %21 = tail call noalias dereferenceable_or_null(32) ptr @malloc(i64 noundef 32) #6
  %22 = icmp eq ptr %21, null
  br i1 %22, label %23, label %24

23:                                               ; preds = %19
  tail call void @JNU_ThrowOutOfMemoryError(ptr noundef nonnull %0, ptr noundef nonnull @.str.1) #5
  br label %44

24:                                               ; preds = %19
  %25 = getelementptr inbounds i8, ptr %13, i64 56
  store ptr %21, ptr %25, align 8
  store ptr @OGLSD_Lock, ptr %13, align 8
  %26 = getelementptr inbounds i8, ptr %13, i64 8
  store ptr @OGLSD_GetRasInfo, ptr %26, align 8
  %27 = getelementptr inbounds i8, ptr %13, i64 24
  store ptr @OGLSD_Unlock, ptr %27, align 8
  %28 = getelementptr inbounds i8, ptr %13, i64 40
  store ptr @OGLSD_Dispose, ptr %28, align 8
  %29 = getelementptr inbounds i8, ptr %13, i64 72
  store i32 0, ptr %29, align 8
  %30 = getelementptr inbounds i8, ptr %13, i64 76
  store i32 1028, ptr %30, align 4
  %31 = getelementptr inbounds i8, ptr %13, i64 81
  store i8 1, ptr %31, align 1
  %.not = icmp eq ptr %3, null
  br i1 %.not, label %34, label %32

32:                                               ; preds = %24
  %33 = tail call i64 (ptr, ptr, ptr, ptr, ptr, ...) @JNU_CallMethodByName(ptr noundef nonnull %0, ptr noundef null, ptr noundef nonnull %3, ptr noundef nonnull @.str.2, ptr noundef nonnull @.str.3) #5
  br label %34

34:                                               ; preds = %24, %32
  %storemerge = phi i64 [ %33, %32 ], [ 0, %24 ]
  store i64 %storemerge, ptr %21, align 8
  %35 = inttoptr i64 %4 to ptr
  %36 = getelementptr inbounds i8, ptr %21, i64 24
  store ptr %35, ptr %36, align 8
  %37 = icmp eq i64 %4, 0
  br i1 %37, label %38, label %39

38:                                               ; preds = %34
  tail call void @free(ptr noundef nonnull %21) #5
  tail call void @JNU_ThrowNullPointerException(ptr noundef nonnull %0, ptr noundef nonnull @.str.4) #5
  br label %44

39:                                               ; preds = %34
  %40 = getelementptr inbounds i8, ptr %35, i64 152
  %41 = load ptr, ptr %40, align 8
  %42 = icmp eq ptr %41, null
  br i1 %42, label %43, label %44

43:                                               ; preds = %39
  tail call void @free(ptr noundef nonnull %21) #5
  tail call void @JNU_ThrowNullPointerException(ptr noundef nonnull %0, ptr noundef nonnull @.str.5) #5
  br label %44

44:                                               ; preds = %43, %39, %38, %23, %15, %11
  ret void
}